target datalayout = "e-m:e-p270:32:32-p271:32:32-p272:64:64-i64:64-i128:128-f80:128-n8:16:32:64-S128"
target triple = "x86_64-pc-linux-gnu"

%"struct.gmx::MrcDensityMapHeader" = type { i32, i32, %"struct.std::array", %"struct.std::array.0", %"struct.gmx::CrystallographicLabels", %"struct.std::array.3", %"struct.std::array.3", %"struct.std::array.4", %"struct.std::array.4", %"struct.std::array.4", %"struct.std::array.4", %"struct.gmx::MrcDataStatistics", %"struct.gmx::MrcDensitySkewData", %"class.std::vector" }
%"struct.std::array" = type { [4 x i8] }
%"struct.std::array.0" = type { [15 x float] }
%"struct.gmx::CrystallographicLabels" = type { i32, %"struct.std::array.1" }
%"struct.std::array.1" = type { [10 x %"struct.std::array.2"] }
%"struct.std::array.2" = type { [80 x i8] }
%"struct.std::array.3" = type { [3 x float] }
%"struct.std::array.4" = type { [3 x i32] }
%"struct.gmx::MrcDataStatistics" = type { float, float, float, float }
%"struct.gmx::MrcDensitySkewData" = type { i8, %"struct.std::array.5", %"struct.std::array.3" }
%"struct.std::array.5" = type { [9 x float] }
%"class.std::vector" = type { %"struct.std::_Vector_base" }
%"struct.std::_Vector_base" = type { %"struct.std::_Vector_base<unsigned char, std::allocator<unsigned char>>::_Vector_impl" }
%"struct.std::_Vector_base<unsigned char, std::allocator<unsigned char>>::_Vector_impl" = type { %"struct.std::_Vector_base<unsigned char, std::allocator<unsigned char>>::_Vector_impl_data" }
%"struct.std::_Vector_base<unsigned char, std::allocator<unsigned char>>::_Vector_impl_data" = type { ptr, ptr, ptr }
%"class.gmx::extents" = type { %"struct.gmx::detail::extents_analyse" }
%"struct.gmx::detail::extents_analyse" = type { %"struct.gmx::detail::extents_analyse.24", i64 }
%"struct.gmx::detail::extents_analyse.24" = type { %"struct.gmx::detail::extents_analyse.25", i64 }
%"struct.gmx::detail::extents_analyse.25" = type { [8 x i8], i64 }

; Function Attrs: mustprogress nounwind uwtable
define linkonce_odr void @_ZN3gmx6detail15extents_analyseILi0EJEEC2Ev(ptr noundef nonnull align 1 dereferenceable(1) %0) unnamed_addr #3 comdat align 2 {
  %2 = alloca ptr, align 8
  store ptr %0, ptr %2, align 8, !tbaa !166
  ret void
}

; Function Attrs: mustprogress uwtable
define linkonce_odr void @_ZN3gmx6detail15extents_analyseILi1EJLln1EEEC2IJEEElDpT_(ptr noundef nonnull align 8 dereferenceable(16) %0, i64 noundef %1) unnamed_addr #0 comdat align 2 {
  %3 = alloca ptr, align 8
  %4 = alloca i64, align 8
  store ptr %0, ptr %3, align 8, !tbaa !163
  store i64 %1, ptr %4, align 8, !tbaa !32
  %5 = load ptr, ptr %3, align 8
  call void @_ZN3gmx6detail15extents_analyseILi0EJEEC2Ev(ptr noundef nonnull align 1 dereferenceable(1) %5)
  %6 = getelementptr inbounds nuw %"struct.gmx::detail::extents_analyse.25", ptr %5, i32 0, i32 1
  %7 = load i64, ptr %4, align 8, !tbaa !32
  store i64 %7, ptr %6, align 8, !tbaa !165
  ret void
}

; Function Attrs: mustprogress uwtable
define linkonce_odr void @_ZN3gmx6detail15extents_analyseILi2EJLln1ELln1EEEC2IJiEEElDpT_(ptr noundef nonnull align 8 dereferenceable(24) %0, i64 noundef %1, i32 noundef %2) unnamed_addr #0 comdat align 2 {
  %4 = alloca ptr, align 8
  %5 = alloca i64, align 8
  %6 = alloca i32, align 4
  store ptr %0, ptr %4, align 8, !tbaa !160
  store i64 %1, ptr %5, align 8, !tbaa !32
  store i32 %2, ptr %6, align 4, !tbaa !9
  %7 = load ptr, ptr %4, align 8
  %8 = getelementptr inbounds nuw %"struct.gmx::detail::extents_analyse.24", ptr %7, i32 0, i32 0
  %9 = load i32, ptr %6, align 4, !tbaa !9
  %10 = sext i32 %9 to i64
  call void @_ZN3gmx6detail15extents_analyseILi1EJLln1EEEC2IJEEElDpT_(ptr noundef nonnull align 8 dereferenceable(16) %8, i64 noundef %10)
  %11 = getelementptr inbounds nuw %"struct.gmx::detail::extents_analyse.24", ptr %7, i32 0, i32 1
  %12 = load i64, ptr %5, align 8, !tbaa !32
  store i64 %12, ptr %11, align 8, !tbaa !162
  ret void
}

; Function Attrs: noinline noreturn nounwind uwtable
define linkonce_odr hidden void @__clang_call_terminate(ptr noundef %0) #10 comdat {
  %2 = call ptr @__cxa_begin_catch(ptr %0) #16
  call void @_ZSt9terminatev() #19
  unreachable
}

; Function Attrs: mustprogress uwtable
define linkonce_odr void @_ZN3gmx6detail15extents_analyseILi3EJLln1ELln1ELln1EEEC2IJiiEEElDpT_(ptr noundef nonnull align 8 dereferenceable(32) %0, i64 noundef %1, i32 noundef %2, i32 noundef %3) unnamed_addr #0 comdat align 2 {
  %5 = alloca ptr, align 8
  %6 = alloca i64, align 8
  %7 = alloca i32, align 4
  %8 = alloca i32, align 4
  store ptr %0, ptr %5, align 8, !tbaa !153
  store i64 %1, ptr %6, align 8, !tbaa !32
  store i32 %2, ptr %7, align 4, !tbaa !9
  store i32 %3, ptr %8, align 4, !tbaa !9
  %9 = load ptr, ptr %5, align 8
  %10 = getelementptr inbounds nuw %"struct.gmx::detail::extents_analyse", ptr %9, i32 0, i32 0
  %11 = load i32, ptr %7, align 4, !tbaa !9
  %12 = sext i32 %11 to i64
  %13 = load i32, ptr %8, align 4, !tbaa !9
  call void @_ZN3gmx6detail15extents_analyseILi2EJLln1ELln1EEEC2IJiEEElDpT_(ptr noundef nonnull align 8 dereferenceable(24) %10, i64 noundef %12, i32 noundef %13)
  %14 = getelementptr inbounds nuw %"struct.gmx::detail::extents_analyse", ptr %9, i32 0, i32 1
  %15 = load i64, ptr %6, align 8, !tbaa !32
  store i64 %15, ptr %14, align 8, !tbaa !155
  ret void
}

; Function Attrs: mustprogress nounwind uwtable
define linkonce_odr noundef nonnull align 4 dereferenceable(4) ptr @_ZNSt14__array_traitsIiLm3EE6_S_refERA3_Kim(ptr noundef nonnull align 4 dereferenceable(12) %0, i64 noundef %1) #3 comdat align 2 {
  %3 = alloca ptr, align 8
  %4 = alloca i64, align 8
  store ptr %0, ptr %3, align 8, !tbaa !34
  store i64 %1, ptr %4, align 8, !tbaa !32
  %5 = load ptr, ptr %3, align 8, !tbaa !34
  %6 = load i64, ptr %4, align 8, !tbaa !32
  %7 = getelementptr inbounds nuw [3 x i32], ptr %5, i64 0, i64 %6
  ret ptr %7
}

; Function Attrs: mustprogress nounwind uwtable
define linkonce_odr void @_ZN3gmx7extentsIJLln1ELln1ELln1EEEC2IJiiEEElDpT_(ptr noundef nonnull align 8 dereferenceable(32) %0, i64 noundef %1, i32 noundef %2, i32 noundef %3) unnamed_addr #3 comdat align 2 personality ptr @__gxx_personality_v0 {
  %5 = alloca ptr, align 8
  %6 = alloca i64, align 8
  %7 = alloca i32, align 4
  %8 = alloca i32, align 4
  store ptr %0, ptr %5, align 8, !tbaa !151
  store i64 %1, ptr %6, align 8, !tbaa !32
  store i32 %2, ptr %7, align 4, !tbaa !9
  store i32 %3, ptr %8, align 4, !tbaa !9
  %9 = load ptr, ptr %5, align 8
  %10 = getelementptr inbounds nuw %"class.gmx::extents", ptr %9, i32 0, i32 0
  %11 = load i64, ptr %6, align 8, !tbaa !32
  %12 = load i32, ptr %7, align 4, !tbaa !9
  %13 = load i32, ptr %8, align 4, !tbaa !9
  invoke void @_ZN3gmx6detail15extents_analyseILi3EJLln1ELln1ELln1EEEC2IJiiEEElDpT_(ptr noundef nonnull align 8 dereferenceable(32) %10, i64 noundef %11, i32 noundef %12, i32 noundef %13)
          to label %14 unwind label %15

14:                                               ; preds = %4
  ret void

15:                                               ; preds = %4
  %16 = landingpad { ptr, i32 }
          catch ptr null
  %17 = extractvalue { ptr, i32 } %16, 0
  call void @__clang_call_terminate(ptr %17) #19
  unreachable
}

; Function Attrs: mustprogress nounwind uwtable
define linkonce_odr noundef nonnull align 4 dereferenceable(4) ptr @_ZNKSt5arrayIiLm3EEixEm(ptr noundef nonnull align 4 dereferenceable(12) %0, i64 noundef %1) #3 comdat align 2 {
  %3 = alloca ptr, align 8
  %4 = alloca i64, align 8
  store ptr %0, ptr %3, align 8, !tbaa !11
  store i64 %1, ptr %4, align 8, !tbaa !32
  %5 = load ptr, ptr %3, align 8
  %6 = getelementptr inbounds nuw %"struct.std::array.4", ptr %5, i32 0, i32 0
  %7 = load i64, ptr %4, align 8, !tbaa !32
  %8 = call noundef nonnull align 4 dereferenceable(4) ptr @_ZNSt14__array_traitsIiLm3EE6_S_refERA3_Kim(ptr noundef nonnull align 4 dereferenceable(12) %6, i64 noundef %7) #16
  ret ptr %8
}

; Function Attrs: mustprogress nounwind uwtable
define void @_ZN3gmx19getDynamicExtents3DERKNS_19MrcDensityMapHeaderE(ptr dead_on_unwind noalias writable sret(%"class.gmx::extents") align 8 %0, ptr noundef nonnull align 8 dereferenceable(1040) %1) #3 {
  %3 = alloca ptr, align 8
  store ptr %1, ptr %3, align 8, !tbaa !4
  %4 = load ptr, ptr %3, align 8, !tbaa !4
  %5 = getelementptr inbounds nuw %"struct.gmx::MrcDensityMapHeader", ptr %4, i32 0, i32 8
  %6 = call noundef nonnull align 4 dereferenceable(4) ptr @_ZNKSt5arrayIiLm3EEixEm(ptr noundef nonnull align 4 dereferenceable(12) %5, i64 noundef 2) #16
  %7 = load i32, ptr %6, align 4, !tbaa !9
  %8 = sext i32 %7 to i64
  %9 = load ptr, ptr %3, align 8, !tbaa !4
  %10 = getelementptr inbounds nuw %"struct.gmx::MrcDensityMapHeader", ptr %9, i32 0, i32 8
  %11 = call noundef nonnull align 4 dereferenceable(4) ptr @_ZNKSt5arrayIiLm3EEixEm(ptr noundef nonnull align 4 dereferenceable(12) %10, i64 noundef 1) #16
  %12 = load i32, ptr %11, align 4, !tbaa !9
  %13 = load ptr, ptr %3, align 8, !tbaa !4
  %14 = getelementptr inbounds nuw %"struct.gmx::MrcDensityMapHeader", ptr %13, i32 0, i32 8
  %15 = call noundef nonnull align 4 dereferenceable(4) ptr @_ZNKSt5arrayIiLm3EEixEm(ptr noundef nonnull align 4 dereferenceable(12) %14, i64 noundef 0) #16
  %16 = load i32, ptr %15, align 4, !tbaa !9
  call void @_ZN3gmx7extentsIJLln1ELln1ELln1EEEC2IJiiEEElDpT_(ptr noundef nonnull align 8 dereferenceable(32) %0, i64 noundef %8, i32 noundef %12, i32 noundef %16) #16
  ret void
}