; Function Attrs: mustprogress nofree norecurse nosync nounwind willreturn memory(argmem: readwrite) uwtable
define void @_ZN3gmx19getDynamicExtents3DERKNS_19MrcDensityMapHeaderE(ptr dead_on_unwind noalias writable writeonly sret(%"class.gmx::extents") align 8 captures(none) initializes((8, 32)) %0, ptr noundef nonnull readonly align 8 captures(none) dereferenceable(1040) %1) local_unnamed_addr #14 personality ptr @__gxx_personality_v0 {
  %3 = getelementptr inbounds nuw i8, ptr %1, i64 912
  %4 = getelementptr inbounds nuw i8, ptr %1, i64 920
  %5 = load i32, ptr %4, align 8, !tbaa !4
  %6 = sext i32 %5 to i64
  %7 = getelementptr inbounds nuw i8, ptr %1, i64 916
  %8 = load i32, ptr %7, align 4, !tbaa !4
  %9 = load i32, ptr %3, align 8, !tbaa !4
  %10 = sext i32 %8 to i64
  %11 = sext i32 %9 to i64
  %12 = getelementptr inbounds nuw i8, ptr %0, i64 8
  store i64 %11, ptr %12, align 8, !tbaa !48
  %13 = getelementptr inbounds nuw i8, ptr %0, i64 16
  store i64 %10, ptr %13, align 8, !tbaa !51
  %14 = getelementptr inbounds nuw i8, ptr %0, i64 24
  store i64 %6, ptr %14, align 8, !tbaa !53
  ret void
}